; Function Attrs: mustprogress uwtable
define hidden noundef zeroext i1 @_ZNK7pb_util21has_unit_coefficientsEP9func_decl(ptr noundef nonnull readonly align 8 captures(none) dereferenceable(64) %0, ptr noundef readonly captures(none) %1) local_unnamed_addr #3 align 2 personality ptr @__gxx_personality_v0 {
  %3 = alloca %class.rational, align 8
  %4 = getelementptr inbounds nuw i8, ptr %1, i64 24
  %5 = load ptr, ptr %4, align 8, !tbaa !180
  %6 = icmp eq ptr %5, null
  br i1 %6, label %_ZNK7pb_util13is_at_least_kEP9func_decl.exit.thread, label %_ZNK4decl13get_family_idEv.exit.thread.i.i

_ZNK4decl13get_family_idEv.exit.thread.i.i:       ; preds = %2
  %7 = getelementptr inbounds nuw i8, ptr %0, i64 8
  %8 = load i32, ptr %7, align 8, !tbaa !153
  %9 = load i32, ptr %5, align 8, !tbaa !87
  %10 = icmp eq i32 %9, %8
  br i1 %10, label %_ZNK7pb_util12is_at_most_kEP9func_decl.exit, label %_ZNK7pb_util13is_at_least_kEP9func_decl.exit.thread

_ZNK7pb_util12is_at_most_kEP9func_decl.exit:      ; preds = %_ZNK4decl13get_family_idEv.exit.thread.i.i
  %11 = getelementptr inbounds nuw i8, ptr %5, i64 4
  %12 = load i32, ptr %11, align 4, !tbaa !183
  %13 = icmp eq i32 %12, 0
  br i1 %13, label %.critedge, label %_ZNK7pb_util13is_at_least_kEP9func_decl.exit

_ZNK7pb_util13is_at_least_kEP9func_decl.exit:     ; preds = %_ZNK7pb_util12is_at_most_kEP9func_decl.exit
  %14 = getelementptr inbounds nuw i8, ptr %5, i64 4
  %15 = load i32, ptr %14, align 4, !tbaa !183
  %16 = icmp eq i32 %15, 1
  br i1 %16, label %.critedge, label %_ZNK7pb_util13is_at_least_kEP9func_decl.exit.thread

_ZNK7pb_util13is_at_least_kEP9func_decl.exit.thread: ; preds = %_ZNK4decl13get_family_idEv.exit.thread.i.i, %2, %_ZNK7pb_util13is_at_least_kEP9func_decl.exit
  %17 = getelementptr inbounds nuw i8, ptr %1, i64 32
  %18 = load i32, ptr %17, align 8, !tbaa !217
  %.not.not16.not = icmp eq i32 %18, 0
  br i1 %.not.not16.not, label %.critedge, label %.lr.ph

.lr.ph:                                           ; preds = %_ZNK7pb_util13is_at_least_kEP9func_decl.exit.thread
  %19 = getelementptr inbounds nuw i8, ptr %3, i64 4
  %20 = getelementptr inbounds nuw i8, ptr %3, i64 16
  %21 = getelementptr inbounds nuw i8, ptr %3, i64 20
  br label %22

22:                                               ; preds = %_ZN8rationalD2Ev.exit, %.lr.ph
  %.01217 = phi i32 [ 0, %.lr.ph ], [ %41, %_ZN8rationalD2Ev.exit ]
  call void @llvm.lifetime.start.p0(i64 32, ptr nonnull %3) #22
  call void @_ZNK7pb_util9get_coeffEP9func_declj(ptr dead_on_unwind nonnull writable sret(%class.rational) align 8 %3, ptr noundef nonnull align 8 dereferenceable(64) %0, ptr noundef nonnull %1, i32 noundef %.01217)
  %23 = load i8, ptr %19, align 4
  %24 = and i8 %23, 1
  %25 = icmp eq i8 %24, 0
  %26 = load i32, ptr %3, align 8
  %27 = icmp eq i32 %26, 1
  %28 = select i1 %25, i1 %27, i1 false
  br i1 %28, label %29, label %_ZNK8rational6is_oneEv.exit

29:                                               ; preds = %22
  %30 = load i8, ptr %21, align 4
  %31 = and i8 %30, 1
  %32 = icmp eq i8 %31, 0
  %33 = load i32, ptr %20, align 8
  %34 = icmp eq i32 %33, 1
  %35 = select i1 %32, i1 %34, i1 false
  br label %_ZNK8rational6is_oneEv.exit

_ZNK8rational6is_oneEv.exit:                      ; preds = %29, %22
  %36 = phi i1 [ false, %22 ], [ %35, %29 ]
  %37 = load ptr, ptr @_ZN8rational13g_mpq_managerE, align 8, !tbaa !95
  invoke void @_ZN11mpz_managerILb1EE3delEPS0_R3mpz(ptr noundef %37, ptr noundef nonnull align 8 dereferenceable(32) %3)
          to label %.noexc.i unwind label %38

.noexc.i:                                         ; preds = %_ZNK8rational6is_oneEv.exit
  invoke void @_ZN11mpz_managerILb1EE3delEPS0_R3mpz(ptr noundef %37, ptr noundef nonnull align 8 dereferenceable(16) %20)
          to label %_ZN8rationalD2Ev.exit unwind label %38

38:                                               ; preds = %.noexc.i, %_ZNK8rational6is_oneEv.exit
  %39 = landingpad { ptr, i32 }
          catch ptr null
  %40 = extractvalue { ptr, i32 } %39, 0
  call void @__clang_call_terminate(ptr %40) #24
  unreachable

_ZN8rationalD2Ev.exit:                            ; preds = %.noexc.i
  call void @llvm.lifetime.end.p0(i64 32, ptr nonnull %3) #22
  %41 = add nuw i32 %.01217, 1
  %exitcond.not = icmp ne i32 %41, %18
  %or.cond.not = select i1 %36, i1 %exitcond.not, i1 false
  br i1 %or.cond.not, label %22, label %.critedge, !llvm.loop !219

.critedge:                                        ; preds = %_ZN8rationalD2Ev.exit, %_ZNK7pb_util13is_at_least_kEP9func_decl.exit.thread, %_ZNK7pb_util12is_at_most_kEP9func_decl.exit, %_ZNK7pb_util13is_at_least_kEP9func_decl.exit
  %.0 = phi i1 [ true, %_ZNK7pb_util13is_at_least_kEP9func_decl.exit ], [ true, %_ZNK7pb_util12is_at_most_kEP9func_decl.exit ], [ true, %_ZNK7pb_util13is_at_least_kEP9func_decl.exit.thread ], [ %36, %_ZN8rationalD2Ev.exit ]
  ret i1 %.0
}